target datalayout = "e-m:e-p270:32:32-p271:32:32-p272:64:64-i64:64-i128:128-f80:128-n8:16:32:64-S128"
target triple = "x86_64-pc-linux-gnu"

%struct.exr_attr_string_t = type { i32, i32, ptr }
%struct._priv_exr_part_t = type { i32, i32, %struct.exr_attribute_list, ptr, ptr, ptr, ptr, ptr, ptr, ptr, ptr, ptr, ptr, ptr, ptr, ptr, ptr, %struct.exr_attr_box2i_t, %struct.exr_attr_box2i_t, i32, i32, i32, float, i32, i32, ptr, ptr, ptr, ptr, i64, i16, i16, i32, i64, i64 }
%struct.exr_attr_box2i_t = type { %struct.exr_attr_v2i_t, %struct.exr_attr_v2i_t }
%struct.exr_attr_v2i_t = type { i32, i32 }
%struct.exr_attribute_list = type { i32, i32, ptr, ptr }
%struct.exr_attribute_t = type { ptr, ptr, i8, i8, [2 x i8], i32, %union.anon }
%union.anon = type { double }
%struct.exr_attr_chlist_t = type { i32, i32, ptr }
%struct.exr_attr_chlist_entry_t = type { %struct.exr_attr_string_t, i32, i8, [3 x i8], i32, i32 }

; Function Attrs: inlinehint nounwind uwtable
define internal i32 @compute_sampled_height(i32 noundef %0, i32 noundef %1, i32 noundef %2) #2 {
  %4 = alloca i32, align 4
  %5 = alloca i32, align 4
  %6 = alloca i32, align 4
  %7 = alloca i32, align 4
  %8 = alloca i32, align 4
  %9 = alloca i32, align 4
  %10 = alloca i32, align 4
  %11 = alloca i32, align 4
  store i32 %0, ptr %5, align 4, !tbaa !8
  store i32 %1, ptr %6, align 4, !tbaa !8
  store i32 %2, ptr %7, align 4, !tbaa !8
  call void @llvm.lifetime.start.p0(i64 4, ptr %8) #7
  %12 = load i32, ptr %6, align 4, !tbaa !8
  %13 = icmp sle i32 %12, 1
  br i1 %13, label %14, label %16

14:                                               ; preds = %3
  %15 = load i32, ptr %5, align 4, !tbaa !8
  store i32 %15, ptr %4, align 4
  store i32 1, ptr %9, align 4
  br label %73

16:                                               ; preds = %3
  %17 = load i32, ptr %5, align 4, !tbaa !8
  %18 = icmp eq i32 %17, 1
  br i1 %18, label %19, label %25

19:                                               ; preds = %16
  %20 = load i32, ptr %7, align 4, !tbaa !8
  %21 = load i32, ptr %6, align 4, !tbaa !8
  %22 = srem i32 %20, %21
  %23 = icmp eq i32 %22, 0
  %24 = select i1 %23, i32 1, i32 0
  store i32 %24, ptr %8, align 4, !tbaa !8
  br label %71

25:                                               ; preds = %16
  call void @llvm.lifetime.start.p0(i64 4, ptr %10) #7
  call void @llvm.lifetime.start.p0(i64 4, ptr %11) #7
  %26 = load i32, ptr %7, align 4, !tbaa !8
  %27 = load i32, ptr %6, align 4, !tbaa !8
  %28 = srem i32 %26, %27
  store i32 %28, ptr %10, align 4, !tbaa !8
  %29 = load i32, ptr %10, align 4, !tbaa !8
  %30 = icmp ne i32 %29, 0
  br i1 %30, label %31, label %37

31:                                               ; preds = %25
  %32 = load i32, ptr %7, align 4, !tbaa !8
  %33 = load i32, ptr %6, align 4, !tbaa !8
  %34 = load i32, ptr %10, align 4, !tbaa !8
  %35 = sub nsw i32 %33, %34
  %36 = add nsw i32 %32, %35
  store i32 %36, ptr %10, align 4, !tbaa !8
  br label %39

37:                                               ; preds = %25
  %38 = load i32, ptr %7, align 4, !tbaa !8
  store i32 %38, ptr %10, align 4, !tbaa !8
  br label %39

39:                                               ; preds = %37, %31
  %40 = load i32, ptr %7, align 4, !tbaa !8
  %41 = load i32, ptr %5, align 4, !tbaa !8
  %42 = add nsw i32 %40, %41
  %43 = sub nsw i32 %42, 1
  store i32 %43, ptr %11, align 4, !tbaa !8
  %44 = load i32, ptr %11, align 4, !tbaa !8
  %45 = icmp slt i32 %44, 0
  br i1 %45, label %46, label %51

46:                                               ; preds = %39
  %47 = load i32, ptr %11, align 4, !tbaa !8
  %48 = sub nsw i32 0, %47
  %49 = load i32, ptr %6, align 4, !tbaa !8
  %50 = srem i32 %48, %49
  br label %55

51:                                               ; preds = %39
  %52 = load i32, ptr %11, align 4, !tbaa !8
  %53 = load i32, ptr %6, align 4, !tbaa !8
  %54 = srem i32 %52, %53
  br label %55

55:                                               ; preds = %51, %46
  %56 = phi i32 [ %50, %46 ], [ %54, %51 ]
  %57 = load i32, ptr %11, align 4, !tbaa !8
  %58 = sub nsw i32 %57, %56
  store i32 %58, ptr %11, align 4, !tbaa !8
  %59 = load i32, ptr %10, align 4, !tbaa !8
  %60 = load i32, ptr %11, align 4, !tbaa !8
  %61 = icmp sgt i32 %59, %60
  br i1 %61, label %62, label %63

62:                                               ; preds = %55
  store i32 0, ptr %8, align 4, !tbaa !8
  br label %70

63:                                               ; preds = %55
  %64 = load i32, ptr %11, align 4, !tbaa !8
  %65 = load i32, ptr %10, align 4, !tbaa !8
  %66 = sub nsw i32 %64, %65
  %67 = load i32, ptr %6, align 4, !tbaa !8
  %68 = sdiv i32 %66, %67
  %69 = add nsw i32 %68, 1
  store i32 %69, ptr %8, align 4, !tbaa !8
  br label %70

70:                                               ; preds = %63, %62
  call void @llvm.lifetime.end.p0(i64 4, ptr %11) #7
  call void @llvm.lifetime.end.p0(i64 4, ptr %10) #7
  br label %71

71:                                               ; preds = %70, %19
  %72 = load i32, ptr %8, align 4, !tbaa !8
  store i32 %72, ptr %4, align 4
  store i32 1, ptr %9, align 4
  br label %73

73:                                               ; preds = %71, %14
  call void @llvm.lifetime.end.p0(i64 4, ptr %8) #7
  %74 = load i32, ptr %4, align 4
  ret i32 %74
}

; Function Attrs: inlinehint nounwind uwtable
define internal i32 @compute_sampled_width(i32 noundef %0, i32 noundef %1, i32 noundef %2) #2 {
  %4 = alloca i32, align 4
  %5 = alloca i32, align 4
  %6 = alloca i32, align 4
  %7 = alloca i32, align 4
  store i32 %0, ptr %5, align 4, !tbaa !8
  store i32 %1, ptr %6, align 4, !tbaa !8
  store i32 %2, ptr %7, align 4, !tbaa !8
  %8 = load i32, ptr %6, align 4, !tbaa !8
  %9 = icmp sle i32 %8, 1
  br i1 %9, label %10, label %12

10:                                               ; preds = %3
  %11 = load i32, ptr %5, align 4, !tbaa !8
  store i32 %11, ptr %4, align 4
  br label %22

12:                                               ; preds = %3
  %13 = load i32, ptr %5, align 4, !tbaa !8
  %14 = icmp eq i32 %13, 1
  br i1 %14, label %15, label %16

15:                                               ; preds = %12
  br label %20

16:                                               ; preds = %12
  %17 = load i32, ptr %5, align 4, !tbaa !8
  %18 = load i32, ptr %6, align 4, !tbaa !8
  %19 = sdiv i32 %17, %18
  br label %20

20:                                               ; preds = %16, %15
  %21 = phi i32 [ 1, %15 ], [ %19, %16 ]
  store i32 %21, ptr %4, align 4
  br label %22

22:                                               ; preds = %20, %10
  %23 = load i32, ptr %4, align 4
  ret i32 %23
}

; Function Attrs: nounwind uwtable
define internal i64 @compute_chunk_unpack_size(i32 noundef %0, i32 noundef %1, i32 noundef %2, i32 noundef %3, i32 noundef %4, ptr noundef %5) #0 {
  %7 = alloca i32, align 4
  %8 = alloca i32, align 4
  %9 = alloca i32, align 4
  %10 = alloca i32, align 4
  %11 = alloca i32, align 4
  %12 = alloca ptr, align 8
  %13 = alloca i64, align 8
  %14 = alloca ptr, align 8
  %15 = alloca i32, align 4
  %16 = alloca ptr, align 8
  %17 = alloca i64, align 8
  store i32 %0, ptr %7, align 4, !tbaa !8
  store i32 %1, ptr %8, align 4, !tbaa !8
  store i32 %2, ptr %9, align 4, !tbaa !8
  store i32 %3, ptr %10, align 4, !tbaa !8
  store i32 %4, ptr %11, align 4, !tbaa !8
  store ptr %5, ptr %12, align 8, !tbaa !30
  call void @llvm.lifetime.start.p0(i64 8, ptr %13) #7
  store i64 0, ptr %13, align 8, !tbaa !33
  %18 = load ptr, ptr %12, align 8, !tbaa !30
  %19 = getelementptr inbounds nuw %struct._priv_exr_part_t, ptr %18, i32 0, i32 31
  %20 = load i16, ptr %19, align 2, !tbaa !88
  %21 = sext i16 %20 to i32
  %22 = icmp ne i32 %21, 0
  br i1 %22, label %27, label %23

23:                                               ; preds = %6
  %24 = load i32, ptr %10, align 4, !tbaa !8
  %25 = load i32, ptr %11, align 4, !tbaa !8
  %26 = icmp ne i32 %24, %25
  br i1 %26, label %27, label %78

27:                                               ; preds = %23, %6
  call void @llvm.lifetime.start.p0(i64 8, ptr %14) #7
  %28 = load ptr, ptr %12, align 8, !tbaa !30
  %29 = getelementptr inbounds nuw %struct._priv_exr_part_t, ptr %28, i32 0, i32 3
  %30 = load ptr, ptr %29, align 8, !tbaa !81
  %31 = getelementptr inbounds nuw %struct.exr_attribute_t, ptr %30, i32 0, i32 6
  %32 = load ptr, ptr %31, align 8, !tbaa !75
  store ptr %32, ptr %14, align 8, !tbaa !54
  call void @llvm.lifetime.start.p0(i64 4, ptr %15) #7
  store i32 0, ptr %15, align 4, !tbaa !8
  br label %33

33:                                               ; preds = %74, %27
  %34 = load i32, ptr %15, align 4, !tbaa !8
  %35 = load ptr, ptr %14, align 8, !tbaa !54
  %36 = getelementptr inbounds nuw %struct.exr_attr_chlist_t, ptr %35, i32 0, i32 0
  %37 = load i32, ptr %36, align 8, !tbaa !82
  %38 = icmp slt i32 %34, %37
  br i1 %38, label %40, label %39

39:                                               ; preds = %33
  call void @llvm.lifetime.end.p0(i64 4, ptr %15) #7
  br label %77

40:                                               ; preds = %33
  call void @llvm.lifetime.start.p0(i64 8, ptr %16) #7
  %41 = load ptr, ptr %14, align 8, !tbaa !54
  %42 = getelementptr inbounds nuw %struct.exr_attr_chlist_t, ptr %41, i32 0, i32 2
  %43 = load ptr, ptr %42, align 8, !tbaa !84
  %44 = load i32, ptr %15, align 4, !tbaa !8
  %45 = sext i32 %44 to i64
  %46 = getelementptr inbounds %struct.exr_attr_chlist_entry_t, ptr %43, i64 %45
  store ptr %46, ptr %16, align 8, !tbaa !54
  call void @llvm.lifetime.start.p0(i64 8, ptr %17) #7
  %47 = load ptr, ptr %16, align 8, !tbaa !54
  %48 = getelementptr inbounds nuw %struct.exr_attr_chlist_entry_t, ptr %47, i32 0, i32 1
  %49 = load i32, ptr %48, align 8, !tbaa !85
  %50 = icmp eq i32 %49, 1
  %51 = select i1 %50, i32 2, i32 4
  %52 = sext i32 %51 to i64
  store i64 %52, ptr %17, align 8, !tbaa !33
  %53 = load i32, ptr %9, align 4, !tbaa !8
  %54 = load ptr, ptr %16, align 8, !tbaa !54
  %55 = getelementptr inbounds nuw %struct.exr_attr_chlist_entry_t, ptr %54, i32 0, i32 4
  %56 = load i32, ptr %55, align 8, !tbaa !89
  %57 = load i32, ptr %7, align 4, !tbaa !8
  %58 = call i32 @compute_sampled_width(i32 noundef %53, i32 noundef %56, i32 noundef %57)
  %59 = sext i32 %58 to i64
  %60 = load i64, ptr %17, align 8, !tbaa !33
  %61 = mul i64 %60, %59
  store i64 %61, ptr %17, align 8, !tbaa !33
  %62 = load i32, ptr %10, align 4, !tbaa !8
  %63 = load ptr, ptr %16, align 8, !tbaa !54
  %64 = getelementptr inbounds nuw %struct.exr_attr_chlist_entry_t, ptr %63, i32 0, i32 5
  %65 = load i32, ptr %64, align 4, !tbaa !90
  %66 = load i32, ptr %8, align 4, !tbaa !8
  %67 = call i32 @compute_sampled_height(i32 noundef %62, i32 noundef %65, i32 noundef %66)
  %68 = sext i32 %67 to i64
  %69 = load i64, ptr %17, align 8, !tbaa !33
  %70 = mul i64 %69, %68
  store i64 %70, ptr %17, align 8, !tbaa !33
  %71 = load i64, ptr %17, align 8, !tbaa !33
  %72 = load i64, ptr %13, align 8, !tbaa !33
  %73 = add i64 %72, %71
  store i64 %73, ptr %13, align 8, !tbaa !33
  call void @llvm.lifetime.end.p0(i64 8, ptr %17) #7
  call void @llvm.lifetime.end.p0(i64 8, ptr %16) #7
  br label %74

74:                                               ; preds = %40
  %75 = load i32, ptr %15, align 4, !tbaa !8
  %76 = add nsw i32 %75, 1
  store i32 %76, ptr %15, align 4, !tbaa !8
  br label %33, !llvm.loop !91

77:                                               ; preds = %39
  call void @llvm.lifetime.end.p0(i64 8, ptr %14) #7
  br label %82

78:                                               ; preds = %23
  %79 = load ptr, ptr %12, align 8, !tbaa !30
  %80 = getelementptr inbounds nuw %struct._priv_exr_part_t, ptr %79, i32 0, i32 29
  %81 = load i64, ptr %80, align 8, !tbaa !92
  store i64 %81, ptr %13, align 8, !tbaa !33
  br label %82

82:                                               ; preds = %78, %77
  %83 = load i64, ptr %13, align 8, !tbaa !33
  call void @llvm.lifetime.end.p0(i64 8, ptr %13) #7
  ret i64 %83
}