; Function Attrs: nofree norecurse nosync nounwind memory(read, inaccessiblemem: none) uwtable
define internal fastcc i64 @compute_chunk_unpack_size(i32 noundef %0, i32 noundef %1, i32 noundef %2, i32 noundef range(i32 -32768, 32768) %3, ptr noundef readonly captures(none) %4) unnamed_addr #4 {
  %6 = getelementptr inbounds nuw i8, ptr %4, i64 242
  %7 = load i16, ptr %6, align 2, !tbaa !77
  %.not = icmp eq i16 %7, 0
  %.not22 = icmp eq i32 %2, %3
  %or.cond = and i1 %.not22, %.not
  br i1 %or.cond, label %111, label %8

8:                                                ; preds = %5
  %9 = getelementptr inbounds nuw i8, ptr %4, i64 32
  %10 = load ptr, ptr %9, align 8, !tbaa !70
  %11 = getelementptr inbounds nuw i8, ptr %10, i64 24
  %12 = load ptr, ptr %11, align 8, !tbaa !45
  %13 = load i32, ptr %12, align 8, !tbaa !71
  %14 = icmp sgt i32 %13, 0
  br i1 %14, label %.lr.ph, label %.loopexit

.lr.ph:                                           ; preds = %8
  %15 = getelementptr inbounds nuw i8, ptr %12, i64 8
  %16 = load ptr, ptr %15, align 8, !tbaa !73
  %17 = icmp eq i32 %1, 1
  %18 = icmp eq i32 %2, 1
  %19 = add nsw i32 %2, %0
  %20 = add nsw i32 %19, -1
  %21 = icmp slt i32 %19, 1
  %22 = sub nsw i32 1, %19
  %.pn.i = select i1 %21, i32 %22, i32 %20
  %wide.trip.count57 = zext nneg i32 %13 to i64
  br i1 %18, label %.lr.ph.split.us, label %.lr.ph.split

.lr.ph.split.us:                                  ; preds = %.lr.ph
  br i1 %17, label %.lr.ph.split.us.split.us, label %.lr.ph.split.us.split

.lr.ph.split.us.split.us:                         ; preds = %.lr.ph.split.us, %compute_sampled_height.exit.us.us
  %indvars.iv54 = phi i64 [ %indvars.iv.next55, %compute_sampled_height.exit.us.us ], [ 0, %.lr.ph.split.us ]
  %.025.us.us = phi i64 [ %36, %compute_sampled_height.exit.us.us ], [ 0, %.lr.ph.split.us ]
  %23 = getelementptr inbounds nuw %struct.exr_attr_chlist_entry_t, ptr %16, i64 %indvars.iv54
  %24 = getelementptr inbounds nuw i8, ptr %23, i64 16
  %25 = load i32, ptr %24, align 8, !tbaa !74
  %26 = icmp eq i32 %25, 1
  %27 = getelementptr inbounds nuw i8, ptr %23, i64 28
  %28 = load i32, ptr %27, align 4, !tbaa !78
  %29 = icmp slt i32 %28, 2
  br i1 %29, label %compute_sampled_height.exit.us.us, label %30

30:                                               ; preds = %.lr.ph.split.us.split.us
  %31 = srem i32 %0, %28
  %32 = icmp eq i32 %31, 0
  %33 = zext i1 %32 to i64
  br label %compute_sampled_height.exit.us.us

compute_sampled_height.exit.us.us:                ; preds = %30, %.lr.ph.split.us.split.us
  %.028.i.us.us = phi i64 [ 1, %.lr.ph.split.us.split.us ], [ %33, %30 ]
  %34 = select i1 %26, i64 1, i64 2
  %35 = shl nuw nsw i64 %.028.i.us.us, %34
  %36 = add i64 %35, %.025.us.us
  %indvars.iv.next55 = add nuw nsw i64 %indvars.iv54, 1
  %exitcond58.not = icmp eq i64 %indvars.iv.next55, %wide.trip.count57
  br i1 %exitcond58.not, label %.loopexit, label %.lr.ph.split.us.split.us, !llvm.loop !79

.lr.ph.split.us.split:                            ; preds = %.lr.ph.split.us, %compute_sampled_height.exit.us
  %indvars.iv49 = phi i64 [ %indvars.iv.next50, %compute_sampled_height.exit.us ], [ 0, %.lr.ph.split.us ]
  %.025.us = phi i64 [ %57, %compute_sampled_height.exit.us ], [ 0, %.lr.ph.split.us ]
  %37 = getelementptr inbounds nuw %struct.exr_attr_chlist_entry_t, ptr %16, i64 %indvars.iv49
  %38 = getelementptr inbounds nuw i8, ptr %37, i64 16
  %39 = load i32, ptr %38, align 8, !tbaa !74
  %40 = icmp eq i32 %39, 1
  %41 = getelementptr inbounds nuw i8, ptr %37, i64 24
  %42 = load i32, ptr %41, align 8, !tbaa !80
  %43 = icmp slt i32 %42, 2
  br i1 %43, label %compute_sampled_width.exit.us, label %44

44:                                               ; preds = %.lr.ph.split.us.split
  %45 = sdiv i32 %1, %42
  br label %compute_sampled_width.exit.us

compute_sampled_width.exit.us:                    ; preds = %44, %.lr.ph.split.us.split
  %.0.i.us = phi i32 [ %1, %.lr.ph.split.us.split ], [ %45, %44 ]
  %46 = sext i32 %.0.i.us to i64
  %47 = select i1 %40, i64 1, i64 2
  %48 = shl nsw i64 %46, %47
  %49 = getelementptr inbounds nuw i8, ptr %37, i64 28
  %50 = load i32, ptr %49, align 4, !tbaa !78
  %51 = icmp slt i32 %50, 2
  br i1 %51, label %compute_sampled_height.exit.us, label %52

52:                                               ; preds = %compute_sampled_width.exit.us
  %53 = srem i32 %0, %50
  %54 = icmp eq i32 %53, 0
  %55 = zext i1 %54 to i64
  br label %compute_sampled_height.exit.us

compute_sampled_height.exit.us:                   ; preds = %52, %compute_sampled_width.exit.us
  %.028.i.us = phi i64 [ 1, %compute_sampled_width.exit.us ], [ %55, %52 ]
  %56 = mul nuw nsw i64 %48, %.028.i.us
  %57 = add i64 %56, %.025.us
  %indvars.iv.next50 = add nuw nsw i64 %indvars.iv49, 1
  %exitcond53.not = icmp eq i64 %indvars.iv.next50, %wide.trip.count57
  br i1 %exitcond53.not, label %.loopexit, label %.lr.ph.split.us.split, !llvm.loop !79

.lr.ph.split:                                     ; preds = %.lr.ph
  br i1 %17, label %.lr.ph.split.split.us, label %.lr.ph.split.split

.lr.ph.split.split.us:                            ; preds = %.lr.ph.split, %compute_sampled_height.exit.us30
  %indvars.iv44 = phi i64 [ %indvars.iv.next45, %compute_sampled_height.exit.us30 ], [ 0, %.lr.ph.split ]
  %.025.us26 = phi i64 [ %80, %compute_sampled_height.exit.us30 ], [ 0, %.lr.ph.split ]
  %58 = getelementptr inbounds nuw %struct.exr_attr_chlist_entry_t, ptr %16, i64 %indvars.iv44
  %59 = getelementptr inbounds nuw i8, ptr %58, i64 16
  %60 = load i32, ptr %59, align 8, !tbaa !74
  %61 = icmp eq i32 %60, 1
  %62 = getelementptr inbounds nuw i8, ptr %58, i64 28
  %63 = load i32, ptr %62, align 4, !tbaa !78
  %64 = icmp slt i32 %63, 2
  br i1 %64, label %compute_sampled_height.exit.us30, label %65

65:                                               ; preds = %.lr.ph.split.split.us
  %66 = srem i32 %0, %63
  %67 = icmp eq i32 %66, 0
  %68 = sub nsw i32 %63, %66
  %69 = select i1 %67, i32 0, i32 %68
  %.0.i23.us = add nsw i32 %69, %0
  %70 = urem i32 %.pn.i, %63
  %71 = sub nsw i32 %20, %70
  %72 = icmp sgt i32 %.0.i23.us, %71
  br i1 %72, label %compute_sampled_height.exit.us30, label %73

73:                                               ; preds = %65
  %74 = sub nsw i32 %71, %.0.i23.us
  %75 = sdiv i32 %74, %63
  %76 = add nsw i32 %75, 1
  br label %compute_sampled_height.exit.us30

compute_sampled_height.exit.us30:                 ; preds = %73, %65, %.lr.ph.split.split.us
  %.028.i.us31 = phi i32 [ %2, %.lr.ph.split.split.us ], [ %76, %73 ], [ 0, %65 ]
  %77 = sext i32 %.028.i.us31 to i64
  %78 = select i1 %61, i64 1, i64 2
  %79 = shl nsw i64 %77, %78
  %80 = add i64 %79, %.025.us26
  %indvars.iv.next45 = add nuw nsw i64 %indvars.iv44, 1
  %exitcond48.not = icmp eq i64 %indvars.iv.next45, %wide.trip.count57
  br i1 %exitcond48.not, label %.loopexit, label %.lr.ph.split.split.us, !llvm.loop !79

.lr.ph.split.split:                               ; preds = %.lr.ph.split, %compute_sampled_height.exit
  %indvars.iv = phi i64 [ %indvars.iv.next, %compute_sampled_height.exit ], [ 0, %.lr.ph.split ]
  %.025 = phi i64 [ %110, %compute_sampled_height.exit ], [ 0, %.lr.ph.split ]
  %81 = getelementptr inbounds nuw %struct.exr_attr_chlist_entry_t, ptr %16, i64 %indvars.iv
  %82 = getelementptr inbounds nuw i8, ptr %81, i64 16
  %83 = load i32, ptr %82, align 8, !tbaa !74
  %84 = icmp eq i32 %83, 1
  %85 = getelementptr inbounds nuw i8, ptr %81, i64 24
  %86 = load i32, ptr %85, align 8, !tbaa !80
  %87 = icmp slt i32 %86, 2
  br i1 %87, label %compute_sampled_width.exit, label %88

88:                                               ; preds = %.lr.ph.split.split
  %89 = sdiv i32 %1, %86
  br label %compute_sampled_width.exit

compute_sampled_width.exit:                       ; preds = %.lr.ph.split.split, %88
  %.0.i = phi i32 [ %1, %.lr.ph.split.split ], [ %89, %88 ]
  %90 = sext i32 %.0.i to i64
  %91 = select i1 %84, i64 1, i64 2
  %92 = shl nsw i64 %90, %91
  %93 = getelementptr inbounds nuw i8, ptr %81, i64 28
  %94 = load i32, ptr %93, align 4, !tbaa !78
  %95 = icmp slt i32 %94, 2
  br i1 %95, label %compute_sampled_height.exit, label %96

96:                                               ; preds = %compute_sampled_width.exit
  %97 = srem i32 %0, %94
  %98 = icmp eq i32 %97, 0
  %99 = sub nsw i32 %94, %97
  %100 = select i1 %98, i32 0, i32 %99
  %.0.i23 = add nsw i32 %100, %0
  %101 = urem i32 %.pn.i, %94
  %102 = sub nsw i32 %20, %101
  %103 = icmp sgt i32 %.0.i23, %102
  br i1 %103, label %compute_sampled_height.exit, label %104

104:                                              ; preds = %96
  %105 = sub nsw i32 %102, %.0.i23
  %106 = sdiv i32 %105, %94
  %107 = add nsw i32 %106, 1
  br label %compute_sampled_height.exit

compute_sampled_height.exit:                      ; preds = %compute_sampled_width.exit, %96, %104
  %.028.i = phi i32 [ %2, %compute_sampled_width.exit ], [ %107, %104 ], [ 0, %96 ]
  %108 = sext i32 %.028.i to i64
  %109 = mul i64 %92, %108
  %110 = add i64 %109, %.025
  %indvars.iv.next = add nuw nsw i64 %indvars.iv, 1
  %exitcond.not = icmp eq i64 %indvars.iv.next, %wide.trip.count57
  br i1 %exitcond.not, label %.loopexit, label %.lr.ph.split.split, !llvm.loop !79

111:                                              ; preds = %5
  %112 = getelementptr inbounds nuw i8, ptr %4, i64 232
  %113 = load i64, ptr %112, align 8, !tbaa !81
  br label %.loopexit

.loopexit:                                        ; preds = %compute_sampled_height.exit, %compute_sampled_height.exit.us30, %compute_sampled_height.exit.us, %compute_sampled_height.exit.us.us, %8, %111
  %.1 = phi i64 [ %113, %111 ], [ 0, %8 ], [ %36, %compute_sampled_height.exit.us.us ], [ %57, %compute_sampled_height.exit.us ], [ %80, %compute_sampled_height.exit.us30 ], [ %110, %compute_sampled_height.exit ]
  ret i64 %.1
}